target datalayout = "e-m:e-p270:32:32-p271:32:32-p272:64:64-i64:64-i128:128-f80:128-n8:16:32:64-S128"
target triple = "x86_64-pc-linux-gnu"

@.str.4 = private unnamed_addr constant [43 x i8] c"json: null 'obj' specified to cli_jsonstr\0A\00", align 1
@.str.5 = private unnamed_addr constant [53 x i8] c"json: null string specified as 'key' to cli_jsonstr\0A\00", align 1
@.str.6 = private unnamed_addr constant [52 x i8] c"json: null string specified as 's' to  cli_jsonstr\0A\00", align 1
@.str.7 = private unnamed_addr constant [40 x i8] c"json: no memory for json string object\0A\00", align 1

; Function Attrs: nounwind uwtable
define i32 @cli_jsonstrlen(ptr noundef %0, ptr noundef %1, ptr noundef %2, i32 noundef %3) #0 {
  %5 = alloca i32, align 4
  %6 = alloca ptr, align 8
  %7 = alloca ptr, align 8
  %8 = alloca ptr, align 8
  %9 = alloca i32, align 4
  %10 = alloca i32, align 4
  %11 = alloca ptr, align 8
  store ptr %0, ptr %6, align 8
  store ptr %1, ptr %7, align 8
  store ptr %2, ptr %8, align 8
  store i32 %3, ptr %9, align 4
  %12 = load ptr, ptr %6, align 8
  %13 = icmp eq ptr null, %12
  br i1 %13, label %14, label %15

14:                                               ; preds = %4
  call void (ptr, ...) @cli_dbgmsg(ptr noundef @.str.4)
  store i32 2, ptr %5, align 4
  br label %58

15:                                               ; preds = %4
  %16 = load ptr, ptr %6, align 8
  %17 = call i32 @json_object_get_type(ptr noundef %16)
  store i32 %17, ptr %10, align 4
  %18 = load i32, ptr %10, align 4
  %19 = icmp eq i32 %18, 4
  br i1 %19, label %20, label %25

20:                                               ; preds = %15
  %21 = load ptr, ptr %7, align 8
  %22 = icmp eq ptr null, %21
  br i1 %22, label %23, label %24

23:                                               ; preds = %20
  call void (ptr, ...) @cli_dbgmsg(ptr noundef @.str.5)
  store i32 2, ptr %5, align 4
  br label %58

24:                                               ; preds = %20
  br label %30

25:                                               ; preds = %15
  %26 = load i32, ptr %10, align 4
  %27 = icmp ne i32 %26, 5
  br i1 %27, label %28, label %29

28:                                               ; preds = %25
  store i32 3, ptr %5, align 4
  br label %58

29:                                               ; preds = %25
  br label %30

30:                                               ; preds = %29, %24
  %31 = load ptr, ptr %8, align 8
  %32 = icmp eq ptr null, %31
  br i1 %32, label %33, label %34

33:                                               ; preds = %30
  call void (ptr, ...) @cli_dbgmsg(ptr noundef @.str.6)
  store i32 2, ptr %5, align 4
  br label %58

34:                                               ; preds = %30
  %35 = load ptr, ptr %8, align 8
  %36 = load i32, ptr %9, align 4
  %37 = call ptr @json_object_new_string_len(ptr noundef %35, i32 noundef %36)
  store ptr %37, ptr %11, align 8
  %38 = load ptr, ptr %11, align 8
  %39 = icmp eq ptr null, %38
  br i1 %39, label %40, label %41

40:                                               ; preds = %34
  call void (ptr, ...) @cli_errmsg(ptr noundef @.str.7)
  store i32 20, ptr %5, align 4
  br label %58

41:                                               ; preds = %34
  %42 = load i32, ptr %10, align 4
  %43 = icmp eq i32 %42, 4
  br i1 %43, label %44, label %49

44:                                               ; preds = %41
  %45 = load ptr, ptr %6, align 8
  %46 = load ptr, ptr %7, align 8
  %47 = load ptr, ptr %11, align 8
  %48 = call i32 @json_object_object_add(ptr noundef %45, ptr noundef %46, ptr noundef %47)
  br label %57

49:                                               ; preds = %41
  %50 = load i32, ptr %10, align 4
  %51 = icmp eq i32 %50, 5
  br i1 %51, label %52, label %56

52:                                               ; preds = %49
  %53 = load ptr, ptr %6, align 8
  %54 = load ptr, ptr %11, align 8
  %55 = call i32 @json_object_array_add(ptr noundef %53, ptr noundef %54)
  br label %56

56:                                               ; preds = %52, %49
  br label %57

57:                                               ; preds = %56, %44
  store i32 0, ptr %5, align 4
  br label %58

58:                                               ; preds = %57, %40, %33, %28, %23, %14
  %59 = load i32, ptr %5, align 4
  ret i32 %59
}