; Function Attrs: nounwind uwtable
define noundef i32 @cli_jsonstrlen(ptr noundef %0, ptr noundef %1, ptr noundef %2, i32 noundef %3) local_unnamed_addr #0 {
  %5 = icmp eq ptr %0, null
  br i1 %5, label %6, label %7

6:                                                ; preds = %4
  tail call void (ptr, ...) @cli_dbgmsg(ptr noundef nonnull @.str.4) #2
  br label %26

7:                                                ; preds = %4
  %8 = tail call i32 @json_object_get_type(ptr noundef nonnull %0) #2
  %9 = icmp eq i32 %8, 4
  br i1 %9, label %10, label %13

10:                                               ; preds = %7
  %11 = icmp eq ptr %1, null
  br i1 %11, label %12, label %14

12:                                               ; preds = %10
  tail call void (ptr, ...) @cli_dbgmsg(ptr noundef nonnull @.str.5) #2
  br label %26

13:                                               ; preds = %7
  %.not = icmp eq i32 %8, 5
  br i1 %.not, label %14, label %26

14:                                               ; preds = %13, %10
  %15 = icmp eq ptr %2, null
  br i1 %15, label %16, label %17

16:                                               ; preds = %14
  tail call void (ptr, ...) @cli_dbgmsg(ptr noundef nonnull @.str.6) #2
  br label %26

17:                                               ; preds = %14
  %18 = tail call ptr @json_object_new_string_len(ptr noundef nonnull %2, i32 noundef %3) #2
  %19 = icmp eq ptr %18, null
  br i1 %19, label %20, label %21

20:                                               ; preds = %17
  tail call void (ptr, ...) @cli_errmsg(ptr noundef nonnull @.str.7) #2
  br label %26

21:                                               ; preds = %17
  br i1 %9, label %22, label %24

22:                                               ; preds = %21
  %23 = tail call i32 @json_object_object_add(ptr noundef nonnull %0, ptr noundef %1, ptr noundef nonnull %18) #2
  br label %26

24:                                               ; preds = %21
  %25 = tail call i32 @json_object_array_add(ptr noundef nonnull %0, ptr noundef nonnull %18) #2
  br label %26

26:                                               ; preds = %22, %24, %13, %20, %16, %12, %6
  %.0 = phi i32 [ 2, %6 ], [ 2, %12 ], [ 2, %16 ], [ 20, %20 ], [ 3, %13 ], [ 0, %24 ], [ 0, %22 ]
  ret i32 %.0
}